target datalayout = "e-m:e-p270:32:32-p271:32:32-p272:64:64-i64:64-i128:128-f80:128-n8:16:32:64-S128"
target triple = "x86_64-pc-linux-gnu"

%class.MD5 = type { i8, [64 x i8], [2 x i32], [4 x i32], [16 x i8] }

; Function Attrs: mustprogress uwtable
define void @_ZN3MD56updateEPKhj(ptr noundef nonnull align 4 dereferenceable(108) %0, ptr noundef %1, i32 noundef %2) #4 align 2 {
  %4 = alloca ptr, align 8
  %5 = alloca ptr, align 8
  %6 = alloca i32, align 4
  %7 = alloca i32, align 4
  %8 = alloca i32, align 4
  %9 = alloca i32, align 4
  store ptr %0, ptr %4, align 8, !tbaa !6
  store ptr %1, ptr %5, align 8, !tbaa !18
  store i32 %2, ptr %6, align 4, !tbaa !14
  %10 = load ptr, ptr %4, align 8
  call void @llvm.lifetime.start.p0(i64 4, ptr %7) #3
  %11 = getelementptr inbounds nuw %class.MD5, ptr %10, i32 0, i32 2
  %12 = getelementptr inbounds [2 x i32], ptr %11, i64 0, i64 0
  %13 = load i32, ptr %12, align 4, !tbaa !14
  %14 = udiv i32 %13, 8
  %15 = urem i32 %14, 64
  store i32 %15, ptr %7, align 4, !tbaa !14
  %16 = load i32, ptr %6, align 4, !tbaa !14
  %17 = shl i32 %16, 3
  %18 = getelementptr inbounds nuw %class.MD5, ptr %10, i32 0, i32 2
  %19 = getelementptr inbounds [2 x i32], ptr %18, i64 0, i64 0
  %20 = load i32, ptr %19, align 4, !tbaa !14
  %21 = add i32 %20, %17
  store i32 %21, ptr %19, align 4, !tbaa !14
  %22 = load i32, ptr %6, align 4, !tbaa !14
  %23 = shl i32 %22, 3
  %24 = icmp ult i32 %21, %23
  br i1 %24, label %25, label %30

25:                                               ; preds = %3
  %26 = getelementptr inbounds nuw %class.MD5, ptr %10, i32 0, i32 2
  %27 = getelementptr inbounds [2 x i32], ptr %26, i64 0, i64 1
  %28 = load i32, ptr %27, align 4, !tbaa !14
  %29 = add i32 %28, 1
  store i32 %29, ptr %27, align 4, !tbaa !14
  br label %30

30:                                               ; preds = %25, %3
  %31 = load i32, ptr %6, align 4, !tbaa !14
  %32 = lshr i32 %31, 29
  %33 = getelementptr inbounds nuw %class.MD5, ptr %10, i32 0, i32 2
  %34 = getelementptr inbounds [2 x i32], ptr %33, i64 0, i64 1
  %35 = load i32, ptr %34, align 4, !tbaa !14
  %36 = add i32 %35, %32
  store i32 %36, ptr %34, align 4, !tbaa !14
  call void @llvm.lifetime.start.p0(i64 4, ptr %8) #3
  %37 = load i32, ptr %7, align 4, !tbaa !14
  %38 = sub i32 64, %37
  store i32 %38, ptr %8, align 4, !tbaa !14
  call void @llvm.lifetime.start.p0(i64 4, ptr %9) #3
  %39 = load i32, ptr %6, align 4, !tbaa !14
  %40 = load i32, ptr %8, align 4, !tbaa !14
  %41 = icmp uge i32 %39, %40
  br i1 %41, label %42, label %67

42:                                               ; preds = %30
  %43 = getelementptr inbounds nuw %class.MD5, ptr %10, i32 0, i32 1
  %44 = load i32, ptr %7, align 4, !tbaa !14
  %45 = zext i32 %44 to i64
  %46 = getelementptr inbounds nuw [64 x i8], ptr %43, i64 0, i64 %45
  %47 = load ptr, ptr %5, align 8, !tbaa !18
  %48 = load i32, ptr %8, align 4, !tbaa !14
  %49 = zext i32 %48 to i64
  call void @llvm.memcpy.p0.p0.i64(ptr align 1 %46, ptr align 1 %47, i64 %49, i1 false)
  %50 = getelementptr inbounds nuw %class.MD5, ptr %10, i32 0, i32 1
  %51 = getelementptr inbounds [64 x i8], ptr %50, i64 0, i64 0
  call void @_ZN3MD59transformEPKh(ptr noundef nonnull align 4 dereferenceable(108) %10, ptr noundef %51)
  %52 = load i32, ptr %8, align 4, !tbaa !14
  store i32 %52, ptr %9, align 4, !tbaa !14
  br label %53

53:                                               ; preds = %63, %42
  %54 = load i32, ptr %9, align 4, !tbaa !14
  %55 = add i32 %54, 64
  %56 = load i32, ptr %6, align 4, !tbaa !14
  %57 = icmp ule i32 %55, %56
  br i1 %57, label %58, label %66

58:                                               ; preds = %53
  %59 = load ptr, ptr %5, align 8, !tbaa !18
  %60 = load i32, ptr %9, align 4, !tbaa !14
  %61 = zext i32 %60 to i64
  %62 = getelementptr inbounds nuw i8, ptr %59, i64 %61
  call void @_ZN3MD59transformEPKh(ptr noundef nonnull align 4 dereferenceable(108) %10, ptr noundef %62)
  br label %63

63:                                               ; preds = %58
  %64 = load i32, ptr %9, align 4, !tbaa !14
  %65 = add i32 %64, 64
  store i32 %65, ptr %9, align 4, !tbaa !14
  br label %53, !llvm.loop !32

66:                                               ; preds = %53
  store i32 0, ptr %7, align 4, !tbaa !14
  br label %68

67:                                               ; preds = %30
  store i32 0, ptr %9, align 4, !tbaa !14
  br label %68

68:                                               ; preds = %67, %66
  %69 = getelementptr inbounds nuw %class.MD5, ptr %10, i32 0, i32 1
  %70 = load i32, ptr %7, align 4, !tbaa !14
  %71 = zext i32 %70 to i64
  %72 = getelementptr inbounds nuw [64 x i8], ptr %69, i64 0, i64 %71
  %73 = load ptr, ptr %5, align 8, !tbaa !18
  %74 = load i32, ptr %9, align 4, !tbaa !14
  %75 = zext i32 %74 to i64
  %76 = getelementptr inbounds nuw i8, ptr %73, i64 %75
  %77 = load i32, ptr %6, align 4, !tbaa !14
  %78 = load i32, ptr %9, align 4, !tbaa !14
  %79 = sub i32 %77, %78
  %80 = zext i32 %79 to i64
  call void @llvm.memcpy.p0.p0.i64(ptr align 1 %72, ptr align 1 %76, i64 %80, i1 false)
  call void @llvm.lifetime.end.p0(i64 4, ptr %9) #3
  call void @llvm.lifetime.end.p0(i64 4, ptr %8) #3
  call void @llvm.lifetime.end.p0(i64 4, ptr %7) #3
  ret void
}