; Function Attrs: mustprogress nofree norecurse nosync nounwind memory(argmem: readwrite) uwtable
define void @_ZN3MD56updateEPKhj(ptr noundef nonnull align 4 captures(none) dereferenceable(108) %0, ptr noundef readonly captures(none) %1, i32 noundef %2) local_unnamed_addr #5 align 2 {
._crit_edge:
  %3 = getelementptr inbounds nuw i8, ptr %0, i64 68
  %4 = load i32, ptr %3, align 4, !tbaa !11
  %5 = lshr i32 %4, 3
  %6 = and i32 %5, 63
  %7 = shl i32 %2, 3
  %8 = add i32 %4, %7
  store i32 %8, ptr %3, align 4, !tbaa !11
  %9 = icmp ult i32 %8, %7
  %10 = getelementptr inbounds nuw i8, ptr %0, i64 72
  %11 = load i32, ptr %10, align 4, !tbaa !11
  %12 = zext i1 %9 to i32
  %13 = add i32 %11, %12
  %14 = lshr i32 %2, 29
  %15 = getelementptr inbounds nuw i8, ptr %0, i64 72
  %16 = add i32 %13, %14
  store i32 %16, ptr %15, align 4, !tbaa !11
  %17 = sub nuw nsw i32 64, %6
  %.not = icmp ult i32 %2, %17
  br i1 %.not, label %28, label %18

18:                                               ; preds = %._crit_edge
  %19 = getelementptr inbounds nuw i8, ptr %0, i64 1
  %20 = zext nneg i32 %6 to i64
  %21 = getelementptr inbounds nuw [64 x i8], ptr %19, i64 0, i64 %20
  %22 = zext nneg i32 %17 to i64
  tail call void @llvm.memcpy.p0.p0.i64(ptr noundef nonnull align 1 dereferenceable(1) %21, ptr noundef nonnull align 1 dereferenceable(1) %1, i64 %22, i1 false)
  tail call void @_ZN3MD59transformEPKh(ptr noundef nonnull align 4 dereferenceable(108) %0, ptr noundef nonnull %19)
  %23 = sub nuw nsw i32 128, %6
  %.not2425 = icmp ugt i32 %23, %2
  br i1 %.not2425, label %.loopexit, label %.lr.ph

.lr.ph:                                           ; preds = %18, %.lr.ph
  %24 = phi i32 [ %27, %.lr.ph ], [ %23, %18 ]
  %.026 = phi i32 [ %24, %.lr.ph ], [ %17, %18 ]
  %25 = zext i32 %.026 to i64
  %26 = getelementptr inbounds nuw i8, ptr %1, i64 %25
  tail call void @_ZN3MD59transformEPKh(ptr noundef nonnull align 4 dereferenceable(108) %0, ptr noundef nonnull %26)
  %27 = add i32 %24, 64
  %.not24 = icmp ugt i32 %27, %2
  br i1 %.not24, label %.loopexit, label %.lr.ph, !llvm.loop !20

28:                                               ; preds = %._crit_edge
  %29 = zext nneg i32 %6 to i64
  br label %.loopexit

.loopexit:                                        ; preds = %.lr.ph, %18, %28
  %.020 = phi i64 [ %29, %28 ], [ 0, %18 ], [ 0, %.lr.ph ]
  %.1 = phi i32 [ 0, %28 ], [ %17, %18 ], [ %24, %.lr.ph ]
  %30 = getelementptr inbounds nuw i8, ptr %0, i64 1
  %31 = getelementptr inbounds nuw [64 x i8], ptr %30, i64 0, i64 %.020
  %32 = zext i32 %.1 to i64
  %33 = getelementptr inbounds nuw i8, ptr %1, i64 %32
  %34 = sub i32 %2, %.1
  %35 = zext i32 %34 to i64
  tail call void @llvm.memcpy.p0.p0.i64(ptr nonnull align 1 %31, ptr align 1 %33, i64 %35, i1 false)
  ret void
}